target datalayout = "e-m:e-p270:32:32-p271:32:32-p272:64:64-i64:64-i128:128-f80:128-n8:16:32:64-S128"
target triple = "x86_64-pc-linux-gnu"

%class.QToolBar = type { %class.QWidget }
%class.QWidget = type { %class.QObject, %class.QPaintDevice, ptr }
%class.QObject = type { ptr, %class.QScopedPointer }
%class.QScopedPointer = type { ptr }
%class.QPaintDevice = type { ptr, i16, ptr }
%class.QFrame = type { %class.QWidget }
%class.MLRenderingParametersFrame.base = type <{ %class.QFrame, i32 }>
%class.MLRenderingOnOffToolbar = type { %class.QToolBar, i32, ptr, ptr, ptr }
%class.MLRenderingWireParametersFrame = type { %class.MLRenderingParametersFrame.base, ptr, ptr, ptr, ptr, ptr, ptr, ptr }

; Function Attrs: mustprogress uwtable
define noundef zeroext i1 @_ZN23MLRenderingOnOffToolbar16updateVisibilityEP9MeshModel(ptr noundef nonnull align 8 dereferenceable(80) %0, ptr noundef %1) #5 align 2 {
  %3 = alloca i1, align 1
  %4 = alloca ptr, align 8
  %5 = alloca ptr, align 8
  %6 = alloca i8, align 1
  store ptr %0, ptr %4, align 8
  store ptr %1, ptr %5, align 8
  %7 = load ptr, ptr %4, align 8
  %8 = getelementptr inbounds %class.MLRenderingOnOffToolbar, ptr %7, i32 0, i32 2
  %9 = load ptr, ptr %8, align 8
  %10 = icmp ne ptr %9, null
  br i1 %10, label %11, label %38

11:                                               ; preds = %2
  %12 = getelementptr inbounds %class.MLRenderingOnOffToolbar, ptr %7, i32 0, i32 2
  %13 = load ptr, ptr %12, align 8
  %14 = load ptr, ptr %5, align 8
  %15 = load ptr, ptr %13, align 8
  %16 = getelementptr inbounds ptr, ptr %15, i64 15
  %17 = load ptr, ptr %16, align 8
  %18 = call noundef zeroext i1 %17(ptr noundef nonnull align 8 dereferenceable(16) %13, ptr noundef %14)
  %19 = zext i1 %18 to i8
  store i8 %19, ptr %6, align 1
  %20 = getelementptr inbounds %class.MLRenderingOnOffToolbar, ptr %7, i32 0, i32 4
  %21 = load ptr, ptr %20, align 8
  %22 = load i8, ptr %6, align 1
  %23 = trunc i8 %22 to i1
  call void @_ZN7QAction10setVisibleEb(ptr noundef nonnull align 8 dereferenceable(16) %21, i1 noundef zeroext %23)
  %24 = getelementptr inbounds %class.MLRenderingOnOffToolbar, ptr %7, i32 0, i32 4
  %25 = load ptr, ptr %24, align 8
  %26 = load i8, ptr %6, align 1
  %27 = trunc i8 %26 to i1
  call void @_ZN7QAction12setCheckableEb(ptr noundef nonnull align 8 dereferenceable(16) %25, i1 noundef zeroext %27)
  %28 = getelementptr inbounds %class.MLRenderingOnOffToolbar, ptr %7, i32 0, i32 3
  %29 = load ptr, ptr %28, align 8
  %30 = load i8, ptr %6, align 1
  %31 = trunc i8 %30 to i1
  call void @_ZN7QAction10setVisibleEb(ptr noundef nonnull align 8 dereferenceable(16) %29, i1 noundef zeroext %31)
  %32 = getelementptr inbounds %class.MLRenderingOnOffToolbar, ptr %7, i32 0, i32 3
  %33 = load ptr, ptr %32, align 8
  %34 = load i8, ptr %6, align 1
  %35 = trunc i8 %34 to i1
  call void @_ZN7QAction12setCheckableEb(ptr noundef nonnull align 8 dereferenceable(16) %33, i1 noundef zeroext %35)
  %36 = load i8, ptr %6, align 1
  %37 = trunc i8 %36 to i1
  store i1 %37, ptr %3, align 1
  br label %39

38:                                               ; preds = %2
  store i1 false, ptr %3, align 1
  br label %39

39:                                               ; preds = %38, %11
  %40 = load i1, ptr %3, align 1
  ret i1 %40
}

; Function Attrs: mustprogress uwtable
define void @_ZN30MLRenderingWireParametersFrame16updateVisibilityEP9MeshModel(ptr noundef nonnull align 8 dereferenceable(112) %0, ptr noundef %1) unnamed_addr #5 align 2 {
  %3 = alloca ptr, align 8
  %4 = alloca ptr, align 8
  store ptr %0, ptr %3, align 8
  store ptr %1, ptr %4, align 8
  %5 = load ptr, ptr %3, align 8
  %6 = getelementptr inbounds %class.MLRenderingWireParametersFrame, ptr %5, i32 0, i32 1
  %7 = load ptr, ptr %6, align 8
  %8 = getelementptr inbounds %class.MLRenderingWireParametersFrame, ptr %5, i32 0, i32 2
  %9 = load ptr, ptr %8, align 8
  %10 = load ptr, ptr %4, align 8
  %11 = call noundef zeroext i1 @_ZN18MLRenderingToolbar16updateVisibilityEP9MeshModel(ptr noundef nonnull align 8 dereferenceable(96) %9, ptr noundef %10)
  %12 = load ptr, ptr %7, align 8
  %13 = getelementptr inbounds ptr, ptr %12, i64 13
  %14 = load ptr, ptr %13, align 8
  call void %14(ptr noundef nonnull align 8 dereferenceable(48) %7, i1 noundef zeroext %11)
  %15 = getelementptr inbounds %class.MLRenderingWireParametersFrame, ptr %5, i32 0, i32 3
  %16 = load ptr, ptr %15, align 8
  %17 = getelementptr inbounds %class.MLRenderingWireParametersFrame, ptr %5, i32 0, i32 4
  %18 = load ptr, ptr %17, align 8
  %19 = load ptr, ptr %4, align 8
  %20 = call noundef zeroext i1 @_ZN18MLRenderingToolbar16updateVisibilityEP9MeshModel(ptr noundef nonnull align 8 dereferenceable(96) %18, ptr noundef %19)
  %21 = load ptr, ptr %16, align 8
  %22 = getelementptr inbounds ptr, ptr %21, i64 13
  %23 = load ptr, ptr %22, align 8
  call void %23(ptr noundef nonnull align 8 dereferenceable(48) %16, i1 noundef zeroext %20)
  %24 = getelementptr inbounds %class.MLRenderingWireParametersFrame, ptr %5, i32 0, i32 5
  %25 = load ptr, ptr %24, align 8
  %26 = getelementptr inbounds %class.MLRenderingWireParametersFrame, ptr %5, i32 0, i32 6
  %27 = load ptr, ptr %26, align 8
  %28 = load ptr, ptr %4, align 8
  %29 = call noundef zeroext i1 @_ZN23MLRenderingOnOffToolbar16updateVisibilityEP9MeshModel(ptr noundef nonnull align 8 dereferenceable(80) %27, ptr noundef %28)
  %30 = load ptr, ptr %25, align 8
  %31 = getelementptr inbounds ptr, ptr %30, i64 13
  %32 = load ptr, ptr %31, align 8
  call void %32(ptr noundef nonnull align 8 dereferenceable(48) %25, i1 noundef zeroext %29)
  ret void
}